target datalayout = "e-m:e-p270:32:32-p271:32:32-p272:64:64-i64:64-i128:128-f80:128-n8:16:32:64-S128"
target triple = "x86_64-pc-linux-gnu"

%struct.packing_data = type { ptr, ptr, i32, i32, ptr, i32, ptr, ptr, ptr, ptr, %union.pthread_mutex_t, ptr, i32, i32, i64, i64, ptr, ptr, ptr }
%union.pthread_mutex_t = type { %struct.__pthread_mutex_s }
%struct.__pthread_mutex_s = type { i32, i32, i32, i32, i32, i16, i16, %struct.__pthread_internal_list }
%struct.__pthread_internal_list = type { ptr, ptr }
%struct.oidset = type { %struct.kh_oid_set }
%struct.kh_oid_set = type { i32, i32, i32, i32, ptr, ptr, ptr }
%struct.object_entry = type { %struct.pack_idx_entry, ptr, i64, i32, i32, i32, i32, i32, [3 x i8], i8, i64 }
%struct.pack_idx_entry = type { %struct.object_id, i32, i64 }
%struct.object_id = type { [32 x i8], i32 }
%struct.packed_git = type { %struct.hashmap_entry, ptr, %struct.list_head, ptr, i64, ptr, i64, i32, i64, %struct.oidset, i32, i64, i32, i32, i8, [32 x i8], ptr, ptr, ptr, i64, ptr, i64, ptr, [0 x i8] }
%struct.hashmap_entry = type { ptr, i32 }
%struct.list_head = type { ptr, ptr }

@to_pack = internal global %struct.packing_data zeroinitializer, align 8
@progress_state = internal global ptr null, align 8
@nr_result = internal global i32 0, align 4
@nr_seen = internal global i32 0, align 4
@reuse_packfile_bitmap = internal global ptr null, align 8
@bitmap_git = internal global ptr null, align 8
@.str.150 = private unnamed_addr constant [17 x i8] c"./pack-objects.h\00", align 1
@.str.151 = private unnamed_addr constant [43 x i8] c"OBJ_ANY cannot be set in pack-objects code\00", align 1

; Function Attrs: inlinehint nounwind uwtable
define internal void @oe_set_in_pack(ptr noundef %0, ptr noundef %1, ptr noundef %2) #2 {
  %4 = alloca ptr, align 8
  %5 = alloca ptr, align 8
  %6 = alloca ptr, align 8
  store ptr %0, ptr %4, align 8, !tbaa !4
  store ptr %1, ptr %5, align 8, !tbaa !9
  store ptr %2, ptr %6, align 8, !tbaa !15
  %7 = load ptr, ptr %4, align 8, !tbaa !4
  %8 = getelementptr inbounds nuw %struct.packing_data, ptr %7, i32 0, i32 8
  %9 = load ptr, ptr %8, align 8, !tbaa !28
  %10 = icmp ne ptr %9, null
  br i1 %10, label %11, label %29

11:                                               ; preds = %3
  %12 = load ptr, ptr %6, align 8, !tbaa !15
  %13 = getelementptr inbounds nuw %struct.packed_git, ptr %12, i32 0, i32 13
  %14 = load i32, ptr %13, align 4, !tbaa !27
  %15 = icmp ne i32 %14, 0
  br i1 %15, label %16, label %27

16:                                               ; preds = %11
  %17 = load ptr, ptr %6, align 8, !tbaa !15
  %18 = getelementptr inbounds nuw %struct.packed_git, ptr %17, i32 0, i32 13
  %19 = load i32, ptr %18, align 4, !tbaa !27
  %20 = load ptr, ptr %5, align 8, !tbaa !9
  %21 = getelementptr inbounds nuw %struct.object_entry, ptr %20, i32 0, i32 10
  %22 = zext i32 %19 to i64
  %23 = load i64, ptr %21, align 8
  %24 = and i64 %22, 1023
  %25 = and i64 %23, -1024
  %26 = or i64 %25, %24
  store i64 %26, ptr %21, align 8
  br label %43

27:                                               ; preds = %11
  %28 = load ptr, ptr %4, align 8, !tbaa !4
  call void @oe_map_new_pack(ptr noundef %28)
  br label %29

29:                                               ; preds = %27, %3
  %30 = load ptr, ptr %6, align 8, !tbaa !15
  %31 = load ptr, ptr %4, align 8, !tbaa !4
  %32 = getelementptr inbounds nuw %struct.packing_data, ptr %31, i32 0, i32 9
  %33 = load ptr, ptr %32, align 8, !tbaa !33
  %34 = load ptr, ptr %5, align 8, !tbaa !9
  %35 = load ptr, ptr %4, align 8, !tbaa !4
  %36 = getelementptr inbounds nuw %struct.packing_data, ptr %35, i32 0, i32 1
  %37 = load ptr, ptr %36, align 8, !tbaa !34
  %38 = ptrtoint ptr %34 to i64
  %39 = ptrtoint ptr %37 to i64
  %40 = sub i64 %38, %39
  %41 = sdiv exact i64 %40, 96
  %42 = getelementptr inbounds ptr, ptr %33, i64 %41
  store ptr %30, ptr %42, align 8, !tbaa !15
  br label %43

43:                                               ; preds = %29, %16
  ret void
}

; Function Attrs: inlinehint nounwind uwtable
define internal void @oe_set_type(ptr noundef %0, i32 noundef %1) #2 {
  %3 = alloca ptr, align 8
  %4 = alloca i32, align 4
  store ptr %0, ptr %3, align 8, !tbaa !9
  store i32 %1, ptr %4, align 4, !tbaa !27
  %5 = load i32, ptr %4, align 4, !tbaa !27
  %6 = icmp sge i32 %5, 8
  br i1 %6, label %7, label %8

7:                                                ; preds = %2
  call void (ptr, i32, ptr, ...) @BUG_fl(ptr noundef @.str.150, i32 noundef 220, ptr noundef @.str.151) #12
  unreachable

8:                                                ; preds = %2
  %9 = load i32, ptr %4, align 4, !tbaa !27
  %10 = icmp sge i32 %9, 0
  %11 = zext i1 %10 to i32
  %12 = load ptr, ptr %3, align 8, !tbaa !9
  %13 = getelementptr inbounds nuw %struct.object_entry, ptr %12, i32 0, i32 10
  %14 = zext i32 %11 to i64
  %15 = load i64, ptr %13, align 8
  %16 = and i64 %14, 1
  %17 = shl i64 %16, 30
  %18 = and i64 %15, -1073741825
  %19 = or i64 %18, %17
  store i64 %19, ptr %13, align 8
  %20 = load i32, ptr %4, align 4, !tbaa !27
  %21 = load ptr, ptr %3, align 8, !tbaa !9
  %22 = getelementptr inbounds nuw %struct.object_entry, ptr %21, i32 0, i32 10
  %23 = zext i32 %20 to i64
  %24 = load i64, ptr %22, align 8
  %25 = and i64 %23, 7
  %26 = shl i64 %25, 32
  %27 = and i64 %24, -30064771073
  %28 = or i64 %27, %26
  store i64 %28, ptr %22, align 8
  ret void
}

; Function Attrs: nounwind uwtable
define internal ptr @create_object_entry(ptr noundef %0, i32 noundef %1, i32 noundef %2, i32 noundef %3, i32 noundef %4, ptr noundef %5, i64 noundef %6) #0 {
  %8 = alloca ptr, align 8
  %9 = alloca i32, align 4
  %10 = alloca i32, align 4
  %11 = alloca i32, align 4
  %12 = alloca i32, align 4
  %13 = alloca ptr, align 8
  %14 = alloca i64, align 8
  %15 = alloca ptr, align 8
  store ptr %0, ptr %8, align 8, !tbaa !190
  store i32 %1, ptr %9, align 4, !tbaa !27
  store i32 %2, ptr %10, align 4, !tbaa !27
  store i32 %3, ptr %11, align 4, !tbaa !27
  store i32 %4, ptr %12, align 4, !tbaa !27
  store ptr %5, ptr %13, align 8, !tbaa !15
  store i64 %6, ptr %14, align 8, !tbaa !13
  call void @llvm.lifetime.start.p0(i64 8, ptr %15) #11
  %16 = load ptr, ptr %8, align 8, !tbaa !190
  %17 = call ptr @packlist_alloc(ptr noundef @to_pack, ptr noundef %16)
  store ptr %17, ptr %15, align 8, !tbaa !9
  %18 = load i32, ptr %10, align 4, !tbaa !27
  %19 = load ptr, ptr %15, align 8, !tbaa !9
  %20 = getelementptr inbounds nuw %struct.object_entry, ptr %19, i32 0, i32 3
  store i32 %18, ptr %20, align 8, !tbaa !260
  %21 = load ptr, ptr %15, align 8, !tbaa !9
  %22 = load i32, ptr %9, align 4, !tbaa !27
  call void @oe_set_type(ptr noundef %21, i32 noundef %22)
  %23 = load i32, ptr %11, align 4, !tbaa !27
  %24 = icmp ne i32 %23, 0
  br i1 %24, label %25, label %31

25:                                               ; preds = %7
  %26 = load ptr, ptr %15, align 8, !tbaa !9
  %27 = getelementptr inbounds nuw %struct.object_entry, ptr %26, i32 0, i32 10
  %28 = load i64, ptr %27, align 8
  %29 = and i64 %28, -274877906945
  %30 = or i64 %29, 274877906944
  store i64 %30, ptr %27, align 8
  br label %34

31:                                               ; preds = %7
  %32 = load i32, ptr @nr_result, align 4, !tbaa !27
  %33 = add i32 %32, 1
  store i32 %33, ptr @nr_result, align 4, !tbaa !27
  br label %34

34:                                               ; preds = %31, %25
  %35 = load ptr, ptr %13, align 8, !tbaa !15
  %36 = icmp ne ptr %35, null
  br i1 %36, label %37, label %43

37:                                               ; preds = %34
  %38 = load ptr, ptr %15, align 8, !tbaa !9
  %39 = load ptr, ptr %13, align 8, !tbaa !15
  call void @oe_set_in_pack(ptr noundef @to_pack, ptr noundef %38, ptr noundef %39)
  %40 = load i64, ptr %14, align 8, !tbaa !13
  %41 = load ptr, ptr %15, align 8, !tbaa !9
  %42 = getelementptr inbounds nuw %struct.object_entry, ptr %41, i32 0, i32 2
  store i64 %40, ptr %42, align 8, !tbaa !19
  br label %43

43:                                               ; preds = %37, %34
  %44 = load i32, ptr %12, align 4, !tbaa !27
  %45 = load ptr, ptr %15, align 8, !tbaa !9
  %46 = getelementptr inbounds nuw %struct.object_entry, ptr %45, i32 0, i32 10
  %47 = zext i32 %44 to i64
  %48 = load i64, ptr %46, align 8
  %49 = and i64 %47, 1
  %50 = shl i64 %49, 31
  %51 = and i64 %48, -2147483649
  %52 = or i64 %51, %50
  store i64 %52, ptr %46, align 8
  %53 = load ptr, ptr %15, align 8, !tbaa !9
  call void @llvm.lifetime.end.p0(i64 8, ptr %15) #11
  ret ptr %53
}

; Function Attrs: nounwind uwtable
define internal i32 @have_duplicate_entry(ptr noundef %0, i32 noundef %1) #0 {
  %3 = alloca i32, align 4
  %4 = alloca ptr, align 8
  %5 = alloca i32, align 4
  %6 = alloca ptr, align 8
  %7 = alloca i32, align 4
  store ptr %0, ptr %4, align 8, !tbaa !190
  store i32 %1, ptr %5, align 4, !tbaa !27
  call void @llvm.lifetime.start.p0(i64 8, ptr %6) #11
  %8 = load ptr, ptr @reuse_packfile_bitmap, align 8, !tbaa !243
  %9 = icmp ne ptr %8, null
  br i1 %9, label %10, label %17

10:                                               ; preds = %2
  %11 = load ptr, ptr @bitmap_git, align 8, !tbaa !245
  %12 = load ptr, ptr @reuse_packfile_bitmap, align 8, !tbaa !243
  %13 = load ptr, ptr %4, align 8, !tbaa !190
  %14 = call i32 @bitmap_walk_contains(ptr noundef %11, ptr noundef %12, ptr noundef %13)
  %15 = icmp ne i32 %14, 0
  br i1 %15, label %16, label %17

16:                                               ; preds = %10
  store i32 1, ptr %3, align 4
  store i32 1, ptr %7, align 4
  br label %44

17:                                               ; preds = %10, %2
  %18 = load ptr, ptr %4, align 8, !tbaa !190
  %19 = call ptr @packlist_find(ptr noundef @to_pack, ptr noundef %18)
  store ptr %19, ptr %6, align 8, !tbaa !9
  %20 = load ptr, ptr %6, align 8, !tbaa !9
  %21 = icmp ne ptr %20, null
  br i1 %21, label %23, label %22

22:                                               ; preds = %17
  store i32 0, ptr %3, align 4
  store i32 1, ptr %7, align 4
  br label %44

23:                                               ; preds = %17
  %24 = load i32, ptr %5, align 4, !tbaa !27
  %25 = icmp ne i32 %24, 0
  br i1 %25, label %26, label %43

26:                                               ; preds = %23
  %27 = load ptr, ptr %6, align 8, !tbaa !9
  %28 = getelementptr inbounds nuw %struct.object_entry, ptr %27, i32 0, i32 10
  %29 = load i64, ptr %28, align 8
  %30 = lshr i64 %29, 38
  %31 = and i64 %30, 1
  %32 = trunc i64 %31 to i32
  %33 = icmp ne i32 %32, 0
  br i1 %33, label %37, label %34

34:                                               ; preds = %26
  %35 = load i32, ptr @nr_result, align 4, !tbaa !27
  %36 = add i32 %35, -1
  store i32 %36, ptr @nr_result, align 4, !tbaa !27
  br label %37

37:                                               ; preds = %34, %26
  %38 = load ptr, ptr %6, align 8, !tbaa !9
  %39 = getelementptr inbounds nuw %struct.object_entry, ptr %38, i32 0, i32 10
  %40 = load i64, ptr %39, align 8
  %41 = and i64 %40, -274877906945
  %42 = or i64 %41, 274877906944
  store i64 %42, ptr %39, align 8
  br label %43

43:                                               ; preds = %37, %23
  store i32 1, ptr %3, align 4
  store i32 1, ptr %7, align 4
  br label %44

44:                                               ; preds = %43, %22, %16
  call void @llvm.lifetime.end.p0(i64 8, ptr %6) #11
  %45 = load i32, ptr %3, align 4
  ret i32 %45
}

; Function Attrs: nounwind uwtable
define internal i32 @add_object_entry_from_bitmap(ptr noundef %0, i32 noundef %1, i32 noundef %2, i32 noundef %3, ptr noundef %4, i64 noundef %5) #0 {
  %7 = alloca i32, align 4
  %8 = alloca ptr, align 8
  %9 = alloca i32, align 4
  %10 = alloca i32, align 4
  %11 = alloca i32, align 4
  %12 = alloca ptr, align 8
  %13 = alloca i64, align 8
  store ptr %0, ptr %8, align 8, !tbaa !190
  store i32 %1, ptr %9, align 4, !tbaa !27
  store i32 %2, ptr %10, align 4, !tbaa !27
  store i32 %3, ptr %11, align 4, !tbaa !27
  store ptr %4, ptr %12, align 8, !tbaa !15
  store i64 %5, ptr %13, align 8, !tbaa !13
  %14 = load ptr, ptr @progress_state, align 8, !tbaa !79
  %15 = load i32, ptr @nr_seen, align 4, !tbaa !27
  %16 = add i32 %15, 1
  store i32 %16, ptr @nr_seen, align 4, !tbaa !27
  %17 = zext i32 %16 to i64
  call void @display_progress(ptr noundef %14, i64 noundef %17)
  %18 = load ptr, ptr %8, align 8, !tbaa !190
  %19 = call i32 @have_duplicate_entry(ptr noundef %18, i32 noundef 0)
  %20 = icmp ne i32 %19, 0
  br i1 %20, label %21, label %22

21:                                               ; preds = %6
  store i32 0, ptr %7, align 4
  br label %34

22:                                               ; preds = %6
  %23 = load ptr, ptr %8, align 8, !tbaa !190
  %24 = call i32 @want_object_in_pack(ptr noundef %23, i32 noundef 0, ptr noundef %12, ptr noundef %13)
  %25 = icmp ne i32 %24, 0
  br i1 %25, label %27, label %26

26:                                               ; preds = %22
  store i32 0, ptr %7, align 4
  br label %34

27:                                               ; preds = %22
  %28 = load ptr, ptr %8, align 8, !tbaa !190
  %29 = load i32, ptr %9, align 4, !tbaa !27
  %30 = load i32, ptr %11, align 4, !tbaa !27
  %31 = load ptr, ptr %12, align 8, !tbaa !15
  %32 = load i64, ptr %13, align 8, !tbaa !13
  %33 = call ptr @create_object_entry(ptr noundef %28, i32 noundef %29, i32 noundef %30, i32 noundef 0, i32 noundef 0, ptr noundef %31, i64 noundef %32)
  store i32 1, ptr %7, align 4
  br label %34

34:                                               ; preds = %27, %26, %21
  %35 = load i32, ptr %7, align 4
  ret i32 %35
}