; Function Attrs: nounwind uwtable
define internal range(i32 0, 2) i32 @add_object_entry_from_bitmap(ptr noundef %0, i32 noundef %1, i32 %2, i32 noundef %3, ptr noundef %4, i64 noundef %5) #0 {
  %7 = alloca ptr, align 8
  %8 = alloca i64, align 8
  store ptr %4, ptr %7, align 8, !tbaa !20
  store i64 %5, ptr %8, align 8, !tbaa !28
  %9 = load ptr, ptr @progress_state, align 8, !tbaa !76
  %10 = load i32, ptr @nr_seen, align 4, !tbaa !30
  %11 = add i32 %10, 1
  store i32 %11, ptr @nr_seen, align 4, !tbaa !30
  %12 = zext i32 %11 to i64
  tail call void @display_progress(ptr noundef %9, i64 noundef %12) #25
  %13 = load ptr, ptr @reuse_packfile_bitmap, align 8, !tbaa !141
  %.not.i = icmp eq ptr %13, null
  br i1 %.not.i, label %17, label %14

14:                                               ; preds = %6
  %15 = load ptr, ptr @bitmap_git, align 8, !tbaa !137
  %16 = tail call i32 @bitmap_walk_contains(ptr noundef %15, ptr noundef nonnull %13, ptr noundef %0) #25
  %.not8.i = icmp eq i32 %16, 0
  br i1 %.not8.i, label %17, label %have_duplicate_entry.exit.thread

17:                                               ; preds = %14, %6
  %18 = tail call ptr @packlist_find(ptr noundef nonnull @to_pack, ptr noundef %0) #25
  %.not9.i = icmp eq ptr %18, null
  br i1 %.not9.i, label %have_duplicate_entry.exit, label %have_duplicate_entry.exit.thread

have_duplicate_entry.exit:                        ; preds = %17
  %19 = call fastcc i32 @want_object_in_pack(ptr noundef %0, i32 noundef 0, ptr noundef %7, ptr noundef %8)
  %.not5 = icmp eq i32 %19, 0
  br i1 %.not5, label %have_duplicate_entry.exit.thread, label %20

20:                                               ; preds = %have_duplicate_entry.exit
  %21 = load ptr, ptr %7, align 8, !tbaa !20
  %22 = load i64, ptr %8, align 8, !tbaa !28
  %23 = tail call ptr @packlist_alloc(ptr noundef nonnull @to_pack, ptr noundef %0) #25
  %24 = getelementptr inbounds nuw i8, ptr %23, i64 64
  store i32 %3, ptr %24, align 8, !tbaa !197
  %25 = icmp sgt i32 %1, 7
  br i1 %25, label %26, label %oe_set_type.exit.i

26:                                               ; preds = %20
  tail call void (ptr, i32, ptr, ...) @BUG_fl(ptr noundef nonnull @.str.150, i32 noundef 220, ptr noundef nonnull @.str.151) #26
  unreachable

oe_set_type.exit.i:                               ; preds = %20
  %27 = icmp sgt i32 %1, -1
  %28 = getelementptr inbounds nuw i8, ptr %23, i64 88
  %29 = load i64, ptr %28, align 8
  %30 = select i1 %27, i64 1073741824, i64 0
  %31 = and i64 %29, -31138512897
  %32 = or disjoint i64 %30, %31
  %33 = and i32 %1, 7
  %34 = zext nneg i32 %33 to i64
  %35 = shl nuw nsw i64 %34, 32
  %36 = or disjoint i64 %32, %35
  store i64 %36, ptr %28, align 8
  %37 = load i32, ptr @nr_result, align 4, !tbaa !30
  %38 = add i32 %37, 1
  store i32 %38, ptr @nr_result, align 4, !tbaa !30
  %.not14.i = icmp eq ptr %21, null
  br i1 %.not14.i, label %create_object_entry.exit, label %39

39:                                               ; preds = %oe_set_type.exit.i
  %40 = load ptr, ptr getelementptr inbounds nuw (i8, ptr @to_pack, i64 56), align 8, !tbaa !9
  %.not.i.i = icmp eq ptr %40, null
  br i1 %.not.i.i, label %50, label %41

41:                                               ; preds = %39
  %42 = getelementptr inbounds nuw i8, ptr %21, i64 148
  %43 = load i32, ptr %42, align 4, !tbaa !30
  %.not9.i.i = icmp eq i32 %43, 0
  br i1 %.not9.i.i, label %49, label %44

44:                                               ; preds = %41
  %45 = and i32 %43, 1023
  %46 = zext nneg i32 %45 to i64
  %47 = and i64 %36, -1024
  %48 = or disjoint i64 %47, %46
  br label %oe_set_in_pack.exit.i

49:                                               ; preds = %41
  tail call void @oe_map_new_pack(ptr noundef nonnull @to_pack) #25
  br label %50

50:                                               ; preds = %49, %39
  %51 = load ptr, ptr getelementptr inbounds nuw (i8, ptr @to_pack, i64 64), align 8, !tbaa !18
  %52 = load ptr, ptr getelementptr inbounds nuw (i8, ptr @to_pack, i64 8), align 8, !tbaa !19
  %53 = ptrtoint ptr %23 to i64
  %54 = ptrtoint ptr %52 to i64
  %55 = sub i64 %53, %54
  %56 = sdiv exact i64 %55, 12
  %57 = getelementptr inbounds i8, ptr %51, i64 %56
  store ptr %21, ptr %57, align 8, !tbaa !20
  %.pre.pre.i = load i64, ptr %28, align 8
  br label %oe_set_in_pack.exit.i

oe_set_in_pack.exit.i:                            ; preds = %50, %44
  %.pre.i = phi i64 [ %48, %44 ], [ %.pre.pre.i, %50 ]
  %58 = getelementptr inbounds nuw i8, ptr %23, i64 56
  store i64 %22, ptr %58, align 8, !tbaa !24
  br label %create_object_entry.exit

create_object_entry.exit:                         ; preds = %oe_set_type.exit.i, %oe_set_in_pack.exit.i
  %59 = phi i64 [ %.pre.i, %oe_set_in_pack.exit.i ], [ %36, %oe_set_type.exit.i ]
  %60 = and i64 %59, -2147483649
  store i64 %60, ptr %28, align 8
  br label %have_duplicate_entry.exit.thread

have_duplicate_entry.exit.thread:                 ; preds = %17, %14, %have_duplicate_entry.exit, %create_object_entry.exit
  %.0 = phi i32 [ 1, %create_object_entry.exit ], [ 0, %have_duplicate_entry.exit ], [ 0, %14 ], [ 0, %17 ]
  ret i32 %.0
}